target datalayout = "e-m:e-p270:32:32-p271:32:32-p272:64:64-i64:64-i128:128-f80:128-n8:16:32:64-S128"
target triple = "x86_64-pc-linux-gnu"

%"struct.osgeo::proj::operation::MethodMapping" = type { ptr, i32, ptr, ptr, ptr, ptr }

; Function Attrs: mustprogress noinline nounwind uwtable
define hidden noundef ptr @_ZN5osgeo4proj9operation10getMappingEi(i32 noundef %0) #3 {
  %2 = alloca ptr, align 8
  %3 = alloca i32, align 4
  %4 = alloca ptr, align 8
  %5 = alloca ptr, align 8
  %6 = alloca ptr, align 8
  %7 = alloca i32, align 4
  %8 = alloca ptr, align 8
  store i32 %0, ptr %3, align 4, !tbaa !20
  call void @llvm.lifetime.start.p0(i64 8, ptr %4) #17
  store ptr @_ZN5osgeo4proj9operationL25gProjectionMethodMappingsE, ptr %4, align 8, !tbaa !21
  call void @llvm.lifetime.start.p0(i64 8, ptr %5) #17
  store ptr @_ZN5osgeo4proj9operationL25gProjectionMethodMappingsE, ptr %5, align 8, !tbaa !21
  call void @llvm.lifetime.start.p0(i64 8, ptr %6) #17
  store ptr getelementptr inbounds (%"struct.osgeo::proj::operation::MethodMapping", ptr @_ZN5osgeo4proj9operationL25gProjectionMethodMappingsE, i64 98), ptr %6, align 8, !tbaa !21
  br label %9

9:                                                ; preds = %27, %1
  %10 = load ptr, ptr %5, align 8, !tbaa !21
  %11 = load ptr, ptr %6, align 8, !tbaa !21
  %12 = icmp ne ptr %10, %11
  br i1 %12, label %14, label %13

13:                                               ; preds = %9
  store i32 2, ptr %7, align 4
  br label %30

14:                                               ; preds = %9
  call void @llvm.lifetime.start.p0(i64 8, ptr %8) #17
  %15 = load ptr, ptr %5, align 8, !tbaa !21
  store ptr %15, ptr %8, align 8, !tbaa !21
  %16 = load ptr, ptr %8, align 8, !tbaa !21
  %17 = getelementptr inbounds nuw %"struct.osgeo::proj::operation::MethodMapping", ptr %16, i32 0, i32 1
  %18 = load i32, ptr %17, align 8, !tbaa !23
  %19 = load i32, ptr %3, align 4, !tbaa !20
  %20 = icmp eq i32 %18, %19
  br i1 %20, label %21, label %23

21:                                               ; preds = %14
  %22 = load ptr, ptr %8, align 8, !tbaa !21
  store ptr %22, ptr %2, align 8
  store i32 1, ptr %7, align 4
  br label %24

23:                                               ; preds = %14
  store i32 0, ptr %7, align 4
  br label %24

24:                                               ; preds = %23, %21
  call void @llvm.lifetime.end.p0(i64 8, ptr %8) #17
  %25 = load i32, ptr %7, align 4
  switch i32 %25, label %30 [
    i32 0, label %26
  ]

26:                                               ; preds = %24
  br label %27

27:                                               ; preds = %26
  %28 = load ptr, ptr %5, align 8, !tbaa !21
  %29 = getelementptr inbounds nuw %"struct.osgeo::proj::operation::MethodMapping", ptr %28, i32 1
  store ptr %29, ptr %5, align 8, !tbaa !21
  br label %9

30:                                               ; preds = %24, %13
  call void @llvm.lifetime.end.p0(i64 8, ptr %6) #17
  call void @llvm.lifetime.end.p0(i64 8, ptr %5) #17
  call void @llvm.lifetime.end.p0(i64 8, ptr %4) #17
  %31 = load i32, ptr %7, align 4
  switch i32 %31, label %35 [
    i32 2, label %32
    i32 1, label %33
  ]

32:                                               ; preds = %30
  store ptr null, ptr %2, align 8
  br label %33

33:                                               ; preds = %32, %30
  %34 = load ptr, ptr %2, align 8
  ret ptr %34

35:                                               ; preds = %30
  unreachable
}