; Function Attrs: mustprogress nofree noinline norecurse nosync nounwind willreturn memory(none) uwtable
define hidden noundef ptr @_ZN5osgeo4proj9operation10getMappingEi(i32 noundef %0) local_unnamed_addr #1 {
  br label %3

2:                                                ; preds = %3
  %.011.add = add nuw nsw i64 %.011.idx13, 48
  %.not = icmp eq i64 %.011.add, 4704
  br i1 %.not, label %6, label %3

3:                                                ; preds = %1, %2
  %.011.idx13 = phi i64 [ 0, %1 ], [ %.011.add, %2 ]
  %.011.ptr = getelementptr inbounds nuw i8, ptr @_ZN5osgeo4proj9operationL25gProjectionMethodMappingsE, i64 %.011.idx13
  %4 = getelementptr inbounds nuw i8, ptr %.011.ptr, i64 8
  %5 = load i32, ptr %4, align 8, !tbaa !7
  %.not12 = icmp eq i32 %5, %0
  br i1 %.not12, label %6, label %2

6:                                                ; preds = %2, %3
  %spec.select = phi ptr [ %.011.ptr, %3 ], [ null, %2 ]
  ret ptr %spec.select
}